; ModuleID = '8/979.c'
source_filename = "8/979.c"
target datalayout = "e-m:e-p270:32:32-p271:32:32-p272:64:64-i64:64-f80:128-n8:16:32:64-S128"
target triple = "x86_64-pc-linux-gnu"

@s1 = common dso_local global [100 x i32] zeroinitializer, align 16
@s2 = common dso_local global [100 x i32] zeroinitializer, align 16
@.str = private unnamed_addr constant [6 x i8] c"%d%d\0A\00", align 1
@n = common dso_local global i32 0, align 4
@m = common dso_local global i32 0, align 4
@i = common dso_local global i32 0, align 4
@.str.1 = private unnamed_addr constant [3 x i8] c"%d\00", align 1
@j = common dso_local global i32 0, align 4
@t = common dso_local global i32 0, align 4
@.str.2 = private unnamed_addr constant [2 x i8] c" \00", align 1

; Function Attrs: noinline nounwind uwtable
define dso_local i32 @main() #0 {
  %1 = alloca i32, align 4
  store i32 0, i32* %1, align 4
  call void @get_in()
  call void @sort(i32* getelementptr inbounds ([100 x i32], [100 x i32]* @s1, i64 0, i64 0), i32* getelementptr inbounds ([100 x i32], [100 x i32]* @s2, i64 0, i64 0))
  call void @putout()
  ret i32 0
}

; Function Attrs: noinline nounwind uwtable
define dso_local void @get_in() #0 {
  %1 = call i32 (i8*, ...) @__isoc99_scanf(i8* getelementptr inbounds ([6 x i8], [6 x i8]* @.str, i64 0, i64 0), i32* @n, i32* @m)
  store i32 0, i32* @i, align 4
  br label %2

2:                                                ; preds = %11, %0
  %3 = load i32, i32* @i, align 4
  %4 = load i32, i32* @n, align 4
  %5 = icmp slt i32 %3, %4
  br i1 %5, label %6, label %14

6:                                                ; preds = %2
  %7 = load i32, i32* @i, align 4
  %8 = sext i32 %7 to i64
  %9 = getelementptr inbounds [100 x i32], [100 x i32]* @s1, i64 0, i64 %8
  %10 = call i32 (i8*, ...) @__isoc99_scanf(i8* getelementptr inbounds ([3 x i8], [3 x i8]* @.str.1, i64 0, i64 0), i32* %9)
  br label %11

11:                                               ; preds = %6
  %12 = load i32, i32* @i, align 4
  %13 = add nsw i32 %12, 1
  store i32 %13, i32* @i, align 4
  br label %2

14:                                               ; preds = %2
  store i32 0, i32* @i, align 4
  br label %15

15:                                               ; preds = %24, %14
  %16 = load i32, i32* @i, align 4
  %17 = load i32, i32* @m, align 4
  %18 = icmp slt i32 %16, %17
  br i1 %18, label %19, label %27

19:                                               ; preds = %15
  %20 = load i32, i32* @i, align 4
  %21 = sext i32 %20 to i64
  %22 = getelementptr inbounds [100 x i32], [100 x i32]* @s2, i64 0, i64 %21
  %23 = call i32 (i8*, ...) @__isoc99_scanf(i8* getelementptr inbounds ([3 x i8], [3 x i8]* @.str.1, i64 0, i64 0), i32* %22)
  br label %24

24:                                               ; preds = %19
  %25 = load i32, i32* @i, align 4
  %26 = add nsw i32 %25, 1
  store i32 %26, i32* @i, align 4
  br label %15

27:                                               ; preds = %15
  ret void
}

; Function Attrs: noinline nounwind uwtable
define dso_local void @sort(i32* %0, i32* %1) #0 {
  %3 = alloca i32*, align 8
  %4 = alloca i32*, align 8
  store i32* %0, i32** %3, align 8
  store i32* %1, i32** %4, align 8
  store i32 0, i32* @j, align 4
  br label %5

5:                                                ; preds = %58, %2
  %6 = load i32, i32* @j, align 4
  %7 = load i32, i32* @n, align 4
  %8 = sub nsw i32 %7, 1
  %9 = icmp slt i32 %6, %8
  br i1 %9, label %10, label %61

10:                                               ; preds = %5
  store i32 0, i32* @i, align 4
  br label %11

11:                                               ; preds = %54, %10
  %12 = load i32, i32* @i, align 4
  %13 = load i32, i32* @n, align 4
  %14 = sub nsw i32 %13, 1
  %15 = load i32, i32* @j, align 4
  %16 = sub nsw i32 %14, %15
  %17 = icmp slt i32 %12, %16
  br i1 %17, label %18, label %57

18:                                               ; preds = %11
  %19 = load i32*, i32** %3, align 8
  %20 = load i32, i32* @i, align 4
  %21 = sext i32 %20 to i64
  %22 = getelementptr inbounds i32, i32* %19, i64 %21
  %23 = load i32, i32* %22, align 4
  %24 = load i32*, i32** %3, align 8
  %25 = load i32, i32* @i, align 4
  %26 = add nsw i32 %25, 1
  %27 = sext i32 %26 to i64
  %28 = getelementptr inbounds i32, i32* %24, i64 %27
  %29 = load i32, i32* %28, align 4
  %30 = icmp sgt i32 %23, %29
  br i1 %30, label %31, label %53

31:                                               ; preds = %18
  %32 = load i32*, i32** %3, align 8
  %33 = load i32, i32* @i, align 4
  %34 = sext i32 %33 to i64
  %35 = getelementptr inbounds i32, i32* %32, i64 %34
  %36 = load i32, i32* %35, align 4
  store i32 %36, i32* @t, align 4
  %37 = load i32*, i32** %3, align 8
  %38 = load i32, i32* @i, align 4
  %39 = add nsw i32 %38, 1
  %40 = sext i32 %39 to i64
  %41 = getelementptr inbounds i32, i32* %37, i64 %40
  %42 = load i32, i32* %41, align 4
  %43 = load i32*, i32** %3, align 8
  %44 = load i32, i32* @i, align 4
  %45 = sext i32 %44 to i64
  %46 = getelementptr inbounds i32, i32* %43, i64 %45
  store i32 %42, i32* %46, align 4
  %47 = load i32, i32* @t, align 4
  %48 = load i32*, i32** %3, align 8
  %49 = load i32, i32* @i, align 4
  %50 = add nsw i32 %49, 1
  %51 = sext i32 %50 to i64
  %52 = getelementptr inbounds i32, i32* %48, i64 %51
  store i32 %47, i32* %52, align 4
  br label %53

53:                                               ; preds = %31, %18
  br label %54

54:                                               ; preds = %53
  %55 = load i32, i32* @i, align 4
  %56 = add nsw i32 %55, 1
  store i32 %56, i32* @i, align 4
  br label %11

57:                                               ; preds = %11
  br label %58

58:                                               ; preds = %57
  %59 = load i32, i32* @j, align 4
  %60 = add nsw i32 %59, 1
  store i32 %60, i32* @j, align 4
  br label %5

61:                                               ; preds = %5
  store i32 0, i32* @j, align 4
  br label %62

62:                                               ; preds = %115, %61
  %63 = load i32, i32* @j, align 4
  %64 = load i32, i32* @m, align 4
  %65 = sub nsw i32 %64, 1
  %66 = icmp slt i32 %63, %65
  br i1 %66, label %67, label %118

67:                                               ; preds = %62
  store i32 0, i32* @i, align 4
  br label %68

68:                                               ; preds = %111, %67
  %69 = load i32, i32* @i, align 4
  %70 = load i32, i32* @m, align 4
  %71 = sub nsw i32 %70, 1
  %72 = load i32, i32* @j, align 4
  %73 = sub nsw i32 %71, %72
  %74 = icmp slt i32 %69, %73
  br i1 %74, label %75, label %114

75:                                               ; preds = %68
  %76 = load i32*, i32** %4, align 8
  %77 = load i32, i32* @i, align 4
  %78 = sext i32 %77 to i64
  %79 = getelementptr inbounds i32, i32* %76, i64 %78
  %80 = load i32, i32* %79, align 4
  %81 = load i32*, i32** %4, align 8
  %82 = load i32, i32* @i, align 4
  %83 = add nsw i32 %82, 1
  %84 = sext i32 %83 to i64
  %85 = getelementptr inbounds i32, i32* %81, i64 %84
  %86 = load i32, i32* %85, align 4
  %87 = icmp sgt i32 %80, %86
  br i1 %87, label %88, label %110

88:                                               ; preds = %75
  %89 = load i32*, i32** %4, align 8
  %90 = load i32, i32* @i, align 4
  %91 = sext i32 %90 to i64
  %92 = getelementptr inbounds i32, i32* %89, i64 %91
  %93 = load i32, i32* %92, align 4
  store i32 %93, i32* @t, align 4
  %94 = load i32*, i32** %4, align 8
  %95 = load i32, i32* @i, align 4
  %96 = add nsw i32 %95, 1
  %97 = sext i32 %96 to i64
  %98 = getelementptr inbounds i32, i32* %94, i64 %97
  %99 = load i32, i32* %98, align 4
  %100 = load i32*, i32** %4, align 8
  %101 = load i32, i32* @i, align 4
  %102 = sext i32 %101 to i64
  %103 = getelementptr inbounds i32, i32* %100, i64 %102
  store i32 %99, i32* %103, align 4
  %104 = load i32, i32* @t, align 4
  %105 = load i32*, i32** %4, align 8
  %106 = load i32, i32* @i, align 4
  %107 = add nsw i32 %106, 1
  %108 = sext i32 %107 to i64
  %109 = getelementptr inbounds i32, i32* %105, i64 %108
  store i32 %104, i32* %109, align 4
  br label %110

110:                                              ; preds = %88, %75
  br label %111

111:                                              ; preds = %110
  %112 = load i32, i32* @i, align 4
  %113 = add nsw i32 %112, 1
  store i32 %113, i32* @i, align 4
  br label %68

114:                                              ; preds = %68
  br label %115

115:                                              ; preds = %114
  %116 = load i32, i32* @j, align 4
  %117 = add nsw i32 %116, 1
  store i32 %117, i32* @j, align 4
  br label %62

118:                                              ; preds = %62
  ret void
}

declare dso_local i32 @__isoc99_scanf(i8*, ...) #1

; Function Attrs: noinline nounwind uwtable
define dso_local void @putout() #0 {
  store i32 0, i32* @i, align 4
  br label %1

1:                                                ; preds = %22, %0
  %2 = load i32, i32* @i, align 4
  %3 = load i32, i32* @n, align 4
  %4 = icmp slt i32 %2, %3
  br i1 %4, label %5, label %25

5:                                                ; preds = %1
  %6 = load i32, i32* @i, align 4
  %7 = icmp eq i32 %6, 0
  br i1 %7, label %8, label %14

8:                                                ; preds = %5
  %9 = load i32, i32* @i, align 4
  %10 = sext i32 %9 to i64
  %11 = getelementptr inbounds [100 x i32], [100 x i32]* @s1, i64 0, i64 %10
  %12 = load i32, i32* %11, align 4
  %13 = call i32 (i8*, ...) @printf(i8* getelementptr inbounds ([3 x i8], [3 x i8]* @.str.1, i64 0, i64 0), i32 %12)
  br label %21

14:                                               ; preds = %5
  %15 = call i32 (i8*, ...) @printf(i8* getelementptr inbounds ([2 x i8], [2 x i8]* @.str.2, i64 0, i64 0))
  %16 = load i32, i32* @i, align 4
  %17 = sext i32 %16 to i64
  %18 = getelementptr inbounds [100 x i32], [100 x i32]* @s1, i64 0, i64 %17
  %19 = load i32, i32* %18, align 4
  %20 = call i32 (i8*, ...) @printf(i8* getelementptr inbounds ([3 x i8], [3 x i8]* @.str.1, i64 0, i64 0), i32 %19)
  br label %21

21:                                               ; preds = %14, %8
  br label %22

22:                                               ; preds = %21
  %23 = load i32, i32* @i, align 4
  %24 = add nsw i32 %23, 1
  store i32 %24, i32* @i, align 4
  br label %1

25:                                               ; preds = %1
  store i32 0, i32* @i, align 4
  br label %26

26:                                               ; preds = %37, %25
  %27 = load i32, i32* @i, align 4
  %28 = load i32, i32* @m, align 4
  %29 = icmp slt i32 %27, %28
  br i1 %29, label %30, label %40

30:                                               ; preds = %26
  %31 = call i32 (i8*, ...) @printf(i8* getelementptr inbounds ([2 x i8], [2 x i8]* @.str.2, i64 0, i64 0))
  %32 = load i32, i32* @i, align 4
  %33 = sext i32 %32 to i64
  %34 = getelementptr inbounds [100 x i32], [100 x i32]* @s2, i64 0, i64 %33
  %35 = load i32, i32* %34, align 4
  %36 = call i32 (i8*, ...) @printf(i8* getelementptr inbounds ([3 x i8], [3 x i8]* @.str.1, i64 0, i64 0), i32 %35)
  br label %37

37:                                               ; preds = %30
  %38 = load i32, i32* @i, align 4
  %39 = add nsw i32 %38, 1
  store i32 %39, i32* @i, align 4
  br label %26

40:                                               ; preds = %26
  ret void
}

declare dso_local i32 @printf(i8*, ...) #1


!llvm.module.flags = !{!0}
!llvm.ident = !{!1}

!0 = !{i32 1, !"wchar_size", i32 4}
!1 = !{!"clang version 10.0.0-4ubuntu1 "}
